; Function Attrs: mustprogress uwtable
define dso_local void @_ZN13Probabilities21register_extra_filterE8ProbNameP6Filter(i32 noundef %0, ptr noundef %1) local_unnamed_addr #3 align 2 {
  %3 = alloca i32, align 4
  store i32 %0, ptr %3, align 4
  %4 = tail call noundef ptr @_ZN13Probabilities11GetInstanceEv()
  %5 = getelementptr inbounds i8, ptr %4, i64 240
  %6 = call noundef nonnull align 8 dereferenceable(8) ptr @_ZNSt3mapI8ProbNameP6FilterSt4lessIS0_ESaISt4pairIKS0_S2_EEEixERS6_(ptr noundef nonnull align 8 dereferenceable(48) %5, ptr noundef nonnull align 4 dereferenceable(4) %3)
  store ptr %1, ptr %6, align 8
  ret void
}